target datalayout = "e-m:e-p270:32:32-p271:32:32-p272:64:64-i64:64-i128:128-f80:128-n8:16:32:64-S128"
target triple = "x86_64-pc-linux-gnu"

@proto_s1ap = internal global i32 0, align 4
@s1ap_handle = internal global ptr null, align 8
@.str.98 = private unnamed_addr constant [9 x i8] c"s1ap.ies\00", align 1
@.str.99 = private unnamed_addr constant [15 x i8] c"s1ap.extension\00", align 1
@.str.100 = private unnamed_addr constant [15 x i8] c"s1ap.proc.imsg\00", align 1
@.str.101 = private unnamed_addr constant [15 x i8] c"s1ap.proc.sout\00", align 1
@.str.102 = private unnamed_addr constant [15 x i8] c"s1ap.proc.uout\00", align 1
@.str.2044 = private unnamed_addr constant [24 x i8] c"S1 Application Protocol\00", align 1
@.str.2045 = private unnamed_addr constant [5 x i8] c"S1AP\00", align 1
@.str.2046 = private unnamed_addr constant [5 x i8] c"s1ap\00", align 1
@.str.2047 = private unnamed_addr constant [18 x i8] c"S1AP-PROTOCOL-IES\00", align 1
@s1ap_ies_dissector_table = internal global ptr null, align 8
@.str.2048 = private unnamed_addr constant [20 x i8] c"s1ap.ies.pair.first\00", align 1
@.str.2049 = private unnamed_addr constant [34 x i8] c"S1AP-PROTOCOL-IES-PAIR FirstValue\00", align 1
@s1ap_ies_p1_dissector_table = internal global ptr null, align 8
@.str.2050 = private unnamed_addr constant [21 x i8] c"s1ap.ies.pair.second\00", align 1
@.str.2051 = private unnamed_addr constant [35 x i8] c"S1AP-PROTOCOL-IES-PAIR SecondValue\00", align 1
@s1ap_ies_p2_dissector_table = internal global ptr null, align 8
@.str.2052 = private unnamed_addr constant [24 x i8] c"S1AP-PROTOCOL-EXTENSION\00", align 1
@s1ap_extension_dissector_table = internal global ptr null, align 8
@.str.2053 = private unnamed_addr constant [44 x i8] c"S1AP-ELEMENTARY-PROCEDURE InitiatingMessage\00", align 1
@s1ap_proc_imsg_dissector_table = internal global ptr null, align 8
@.str.2054 = private unnamed_addr constant [44 x i8] c"S1AP-ELEMENTARY-PROCEDURE SuccessfulOutcome\00", align 1
@s1ap_proc_sout_dissector_table = internal global ptr null, align 8
@.str.2055 = private unnamed_addr constant [46 x i8] c"S1AP-ELEMENTARY-PROCEDURE UnsuccessfulOutcome\00", align 1
@s1ap_proc_uout_dissector_table = internal global ptr null, align 8
@.str.2056 = private unnamed_addr constant [18 x i8] c"dissect_container\00", align 1
@.str.2057 = private unnamed_addr constant [29 x i8] c"Dissect TransparentContainer\00", align 1
@.str.2058 = private unnamed_addr constant [54 x i8] c"Dissect TransparentContainers that are opaque to S1AP\00", align 1
@g_s1ap_dissect_container = internal global i8 1, align 1
@.str.2059 = private unnamed_addr constant [25 x i8] c"dissect_lte_container_as\00", align 1
@.str.2060 = private unnamed_addr constant [36 x i8] c"Dissect LTE TransparentContainer as\00", align 1
@.str.2061 = private unnamed_addr constant [84 x i8] c"Select whether LTE TransparentContainer should be dissected as NB-IOT or legacy LTE\00", align 1
@g_s1ap_dissect_lte_container_as = internal global i32 0, align 4

; Function Attrs: null_pointer_is_valid sspstrong uwtable
define hidden void @proto_register_s1ap() #0 {
  %1 = alloca ptr, align 8
  %2 = alloca ptr, align 8
  call void @llvm.lifetime.start.p0(i64 8, ptr %1) #8
  call void @llvm.lifetime.start.p0(i64 8, ptr %2) #8
  %3 = call i32 @proto_register_protocol(ptr noundef @.str.2044, ptr noundef @.str.2045, ptr noundef @.str.2046)
  store i32 %3, ptr @proto_s1ap, align 4
  %4 = load i32, ptr @proto_s1ap, align 4
  call void @proto_register_field_array(i32 noundef %4, ptr noundef @proto_register_s1ap.hf, i32 noundef 989)
  call void @proto_register_subtree_array(ptr noundef @proto_register_s1ap.ett, i32 noundef 472)
  %5 = load i32, ptr @proto_s1ap, align 4
  %6 = call ptr @expert_register_protocol(i32 noundef %5)
  store ptr %6, ptr %2, align 8
  %7 = load ptr, ptr %2, align 8
  call void @expert_register_field_array(ptr noundef %7, ptr noundef @proto_register_s1ap.ei, i32 noundef 1)
  %8 = load i32, ptr @proto_s1ap, align 4
  %9 = call ptr @register_dissector(ptr noundef @.str.2046, ptr noundef @dissect_s1ap, i32 noundef %8)
  store ptr %9, ptr @s1ap_handle, align 8
  %10 = load i32, ptr @proto_s1ap, align 4
  %11 = call ptr @register_dissector_table(ptr noundef @.str.98, ptr noundef @.str.2047, i32 noundef %10, i32 noundef 7, i32 noundef 1)
  store ptr %11, ptr @s1ap_ies_dissector_table, align 8
  %12 = load i32, ptr @proto_s1ap, align 4
  %13 = call ptr @register_dissector_table(ptr noundef @.str.2048, ptr noundef @.str.2049, i32 noundef %12, i32 noundef 7, i32 noundef 1)
  store ptr %13, ptr @s1ap_ies_p1_dissector_table, align 8
  %14 = load i32, ptr @proto_s1ap, align 4
  %15 = call ptr @register_dissector_table(ptr noundef @.str.2050, ptr noundef @.str.2051, i32 noundef %14, i32 noundef 7, i32 noundef 1)
  store ptr %15, ptr @s1ap_ies_p2_dissector_table, align 8
  %16 = load i32, ptr @proto_s1ap, align 4
  %17 = call ptr @register_dissector_table(ptr noundef @.str.99, ptr noundef @.str.2052, i32 noundef %16, i32 noundef 7, i32 noundef 1)
  store ptr %17, ptr @s1ap_extension_dissector_table, align 8
  %18 = load i32, ptr @proto_s1ap, align 4
  %19 = call ptr @register_dissector_table(ptr noundef @.str.100, ptr noundef @.str.2053, i32 noundef %18, i32 noundef 7, i32 noundef 1)
  store ptr %19, ptr @s1ap_proc_imsg_dissector_table, align 8
  %20 = load i32, ptr @proto_s1ap, align 4
  %21 = call ptr @register_dissector_table(ptr noundef @.str.101, ptr noundef @.str.2054, i32 noundef %20, i32 noundef 7, i32 noundef 1)
  store ptr %21, ptr @s1ap_proc_sout_dissector_table, align 8
  %22 = load i32, ptr @proto_s1ap, align 4
  %23 = call ptr @register_dissector_table(ptr noundef @.str.102, ptr noundef @.str.2055, i32 noundef %22, i32 noundef 7, i32 noundef 1)
  store ptr %23, ptr @s1ap_proc_uout_dissector_table, align 8
  %24 = load i32, ptr @proto_s1ap, align 4
  %25 = call ptr @prefs_register_protocol(i32 noundef %24, ptr noundef null)
  store ptr %25, ptr %1, align 8
  %26 = load ptr, ptr %1, align 8
  call void @prefs_register_bool_preference(ptr noundef %26, ptr noundef @.str.2056, ptr noundef @.str.2057, ptr noundef @.str.2058, ptr noundef @g_s1ap_dissect_container)
  %27 = load ptr, ptr %1, align 8
  call void @prefs_register_enum_preference(ptr noundef %27, ptr noundef @.str.2059, ptr noundef @.str.2060, ptr noundef @.str.2061, ptr noundef @g_s1ap_dissect_lte_container_as, ptr noundef @s1ap_lte_container_vals, i1 noundef zeroext false)
  call void @llvm.lifetime.end.p0(i64 8, ptr %2) #8
  call void @llvm.lifetime.end.p0(i64 8, ptr %1) #8
  ret void
}