; Function Attrs: null_pointer_is_valid sspstrong uwtable
define hidden void @proto_register_s1ap() local_unnamed_addr #0 {
  %1 = tail call i32 @proto_register_protocol(ptr noundef nonnull @.str.2044, ptr noundef nonnull @.str.2045, ptr noundef nonnull @.str.2046)
  store i32 %1, ptr @proto_s1ap, align 4
  tail call void @proto_register_field_array(i32 noundef %1, ptr noundef nonnull @proto_register_s1ap.hf, i32 noundef 989)
  tail call void @proto_register_subtree_array(ptr noundef nonnull @proto_register_s1ap.ett, i32 noundef 472)
  %2 = load i32, ptr @proto_s1ap, align 4
  %3 = tail call ptr @expert_register_protocol(i32 noundef %2)
  tail call void @expert_register_field_array(ptr noundef %3, ptr noundef nonnull @proto_register_s1ap.ei, i32 noundef 1)
  %4 = load i32, ptr @proto_s1ap, align 4
  %5 = tail call ptr @register_dissector(ptr noundef nonnull @.str.2046, ptr noundef nonnull @dissect_s1ap, i32 noundef %4)
  store ptr %5, ptr @s1ap_handle, align 8
  %6 = load i32, ptr @proto_s1ap, align 4
  %7 = tail call ptr @register_dissector_table(ptr noundef nonnull @.str.98, ptr noundef nonnull @.str.2047, i32 noundef %6, i32 noundef 7, i32 noundef 1)
  store ptr %7, ptr @s1ap_ies_dissector_table, align 8
  %8 = load i32, ptr @proto_s1ap, align 4
  %9 = tail call ptr @register_dissector_table(ptr noundef nonnull @.str.2048, ptr noundef nonnull @.str.2049, i32 noundef %8, i32 noundef 7, i32 noundef 1)
  store ptr %9, ptr @s1ap_ies_p1_dissector_table, align 8
  %10 = load i32, ptr @proto_s1ap, align 4
  %11 = tail call ptr @register_dissector_table(ptr noundef nonnull @.str.2050, ptr noundef nonnull @.str.2051, i32 noundef %10, i32 noundef 7, i32 noundef 1)
  store ptr %11, ptr @s1ap_ies_p2_dissector_table, align 8
  %12 = load i32, ptr @proto_s1ap, align 4
  %13 = tail call ptr @register_dissector_table(ptr noundef nonnull @.str.99, ptr noundef nonnull @.str.2052, i32 noundef %12, i32 noundef 7, i32 noundef 1)
  store ptr %13, ptr @s1ap_extension_dissector_table, align 8
  %14 = load i32, ptr @proto_s1ap, align 4
  %15 = tail call ptr @register_dissector_table(ptr noundef nonnull @.str.100, ptr noundef nonnull @.str.2053, i32 noundef %14, i32 noundef 7, i32 noundef 1)
  store ptr %15, ptr @s1ap_proc_imsg_dissector_table, align 8
  %16 = load i32, ptr @proto_s1ap, align 4
  %17 = tail call ptr @register_dissector_table(ptr noundef nonnull @.str.101, ptr noundef nonnull @.str.2054, i32 noundef %16, i32 noundef 7, i32 noundef 1)
  store ptr %17, ptr @s1ap_proc_sout_dissector_table, align 8
  %18 = load i32, ptr @proto_s1ap, align 4
  %19 = tail call ptr @register_dissector_table(ptr noundef nonnull @.str.102, ptr noundef nonnull @.str.2055, i32 noundef %18, i32 noundef 7, i32 noundef 1)
  store ptr %19, ptr @s1ap_proc_uout_dissector_table, align 8
  %20 = load i32, ptr @proto_s1ap, align 4
  %21 = tail call ptr @prefs_register_protocol(i32 noundef %20, ptr noundef null)
  tail call void @prefs_register_bool_preference(ptr noundef %21, ptr noundef nonnull @.str.2056, ptr noundef nonnull @.str.2057, ptr noundef nonnull @.str.2058, ptr noundef nonnull @g_s1ap_dissect_container)
  tail call void @prefs_register_enum_preference(ptr noundef %21, ptr noundef nonnull @.str.2059, ptr noundef nonnull @.str.2060, ptr noundef nonnull @.str.2061, ptr noundef nonnull @g_s1ap_dissect_lte_container_as, ptr noundef nonnull @s1ap_lte_container_vals, i1 noundef zeroext false)
  ret void
}